target datalayout = "e-m:e-p270:32:32-p271:32:32-p272:64:64-i64:64-i128:128-f80:128-n8:16:32:64-S128"
target triple = "x86_64-pc-linux-gnu"

%"struct.pkpy::Type" = type { i16 }
%"struct.pkpy::PyObject" = type { ptr, i8, i8, %"struct.pkpy::Type", ptr }
%"struct.pkpy::Str" = type { i32, i8, ptr, [16 x i8] }
%class.anon.212 = type { i8 }
%"struct.pkpy::Py_.387" = type { %"struct.pkpy::PyObject", %"struct.pkpy::VoidP" }
%"struct.pkpy::VoidP" = type { ptr }
%"struct.pkpy::SStream" = type <{ %"struct.pkpy::pod_vector", i32, [4 x i8] }>
%"struct.pkpy::pod_vector" = type { i32, i32, ptr }

@.str.83 = private unnamed_addr constant [2 x i8] c">\00", align 1
@.str.93 = private unnamed_addr constant [2 x i8] c"<\00", align 1
@.str.95 = private unnamed_addr constant [6 x i8] c"* at \00", align 1
@__const._ZN4pkpy18_py_cast__internalIRNS_5VoidPELb0EEET_PNS_2VMEPNS_8PyObjectE.const_type = private unnamed_addr constant %"struct.pkpy::Type" { i16 -1 }, align 2
@.str.98 = private unnamed_addr constant [7 x i8] c"ushort\00", align 1

; Function Attrs: mustprogress nounwind uwtable
define linkonce_odr void @_ZN4pkpy10pod_vectorIcLi2EED2Ev(ptr noundef nonnull align 8 dereferenceable(16) %0) unnamed_addr #6 comdat align 2 {
  %2 = alloca ptr, align 8
  store ptr %0, ptr %2, align 8
  %3 = load ptr, ptr %2, align 8
  %4 = getelementptr inbounds %"struct.pkpy::pod_vector", ptr %3, i32 0, i32 2
  %5 = load ptr, ptr %4, align 8
  %6 = icmp ne ptr %5, null
  br i1 %6, label %7, label %10

7:                                                ; preds = %1
  %8 = getelementptr inbounds %"struct.pkpy::pod_vector", ptr %3, i32 0, i32 2
  %9 = load ptr, ptr %8, align 8
  call void @_ZN4pkpy14pool64_deallocEPv(ptr noundef %9) #3
  br label %10

10:                                               ; preds = %7, %1
  ret void
}

; Function Attrs: mustprogress nounwind uwtable
define linkonce_odr void @_ZN4pkpy10pod_vectorIcLi2EEC2Ev(ptr noundef nonnull align 8 dereferenceable(16) %0) unnamed_addr #6 comdat align 2 {
  %2 = alloca ptr, align 8
  store ptr %0, ptr %2, align 8
  %3 = load ptr, ptr %2, align 8
  %4 = getelementptr inbounds %"struct.pkpy::pod_vector", ptr %3, i32 0, i32 0
  store i32 0, ptr %4, align 8
  %5 = getelementptr inbounds %"struct.pkpy::pod_vector", ptr %3, i32 0, i32 1
  store i32 64, ptr %5, align 4
  %6 = getelementptr inbounds %"struct.pkpy::pod_vector", ptr %3, i32 0, i32 1
  %7 = load i32, ptr %6, align 4
  %8 = mul nsw i32 %7, 1
  %9 = sext i32 %8 to i64
  %10 = call noundef ptr @_ZN4pkpy12pool64_allocEm(i64 noundef %9) #3
  %11 = getelementptr inbounds %"struct.pkpy::pod_vector", ptr %3, i32 0, i32 2
  store ptr %10, ptr %11, align 8
  ret void
}

; Function Attrs: mustprogress nounwind uwtable
define linkonce_odr void @_ZN4pkpy7SStreamD2Ev(ptr noundef nonnull align 8 dereferenceable(20) %0) unnamed_addr #6 comdat align 2 {
  %2 = alloca ptr, align 8
  store ptr %0, ptr %2, align 8
  %3 = load ptr, ptr %2, align 8
  %4 = getelementptr inbounds %"struct.pkpy::SStream", ptr %3, i32 0, i32 0
  call void @_ZN4pkpy10pod_vectorIcLi2EED2Ev(ptr noundef nonnull align 8 dereferenceable(16) %4) #3
  ret void
}

; Function Attrs: mustprogress uwtable
define linkonce_odr void @_ZN4pkpy7SStreamC2Ev(ptr noundef nonnull align 8 dereferenceable(20) %0) unnamed_addr #4 comdat align 2 {
  %2 = alloca ptr, align 8
  store ptr %0, ptr %2, align 8
  %3 = load ptr, ptr %2, align 8
  %4 = getelementptr inbounds %"struct.pkpy::SStream", ptr %3, i32 0, i32 0
  call void @_ZN4pkpy10pod_vectorIcLi2EEC2Ev(ptr noundef nonnull align 8 dereferenceable(16) %4)
  %5 = getelementptr inbounds %"struct.pkpy::SStream", ptr %3, i32 0, i32 1
  store i32 -1, ptr %5, align 8
  ret void
}

; Function Attrs: mustprogress uwtable
define linkonce_odr noundef nonnull align 8 dereferenceable(8) ptr @_ZN4pkpy18_py_cast__internalIRNS_5VoidPELb0EEET_PNS_2VMEPNS_8PyObjectE(ptr noundef %0, ptr noundef %1) #4 comdat {
  %3 = alloca ptr, align 8
  %4 = alloca ptr, align 8
  %5 = alloca %"struct.pkpy::Type", align 2
  %6 = alloca %"struct.pkpy::Type", align 2
  store ptr %0, ptr %3, align 8
  store ptr %1, ptr %4, align 8
  call void @llvm.memcpy.p0.p0.i64(ptr align 2 %5, ptr align 2 @__const._ZN4pkpy18_py_cast__internalIRNS_5VoidPELb0EEET_PNS_2VMEPNS_8PyObjectE.const_type, i64 2, i1 false)
  %7 = load ptr, ptr %3, align 8
  %8 = call i16 @_ZN4pkpy2VM28_find_type_in_cxx_typeid_mapINS_5VoidPEEENS_4TypeEv(ptr noundef nonnull align 8 dereferenceable(264913) %7)
  %9 = getelementptr inbounds %"struct.pkpy::Type", ptr %6, i32 0, i32 0
  store i16 %8, ptr %9, align 2
  %10 = load ptr, ptr %4, align 8
  %11 = getelementptr inbounds %"struct.pkpy::Py_.387", ptr %10, i32 0, i32 1
  ret ptr %11
}

; Function Attrs: mustprogress uwtable
define linkonce_odr void @_ZNK4pkpy5VoidP3hexEv(ptr dead_on_unwind noalias writable sret(%"struct.pkpy::Str") align 8 %0, ptr noundef nonnull align 8 dereferenceable(8) %1) #4 comdat align 2 personality ptr @__gxx_personality_v0 {
  %3 = alloca ptr, align 8
  %4 = alloca ptr, align 8
  %5 = alloca %"struct.pkpy::SStream", align 8
  %6 = alloca ptr, align 8
  %7 = alloca i32, align 4
  store ptr %0, ptr %3, align 8
  store ptr %1, ptr %4, align 8
  %8 = load ptr, ptr %4, align 8
  call void @_ZN4pkpy7SStreamC2Ev(ptr noundef nonnull align 8 dereferenceable(20) %5)
  %9 = getelementptr inbounds %"struct.pkpy::VoidP", ptr %8, i32 0, i32 0
  %10 = load ptr, ptr %9, align 8
  invoke void @_ZN4pkpy7SStream9write_hexEPv(ptr noundef nonnull align 8 dereferenceable(20) %5, ptr noundef %10)
          to label %11 unwind label %13

11:                                               ; preds = %2
  invoke void @_ZN4pkpy7SStream3strEv(ptr dead_on_unwind writable sret(%"struct.pkpy::Str") align 8 %0, ptr noundef nonnull align 8 dereferenceable(20) %5)
          to label %12 unwind label %13

12:                                               ; preds = %11
  call void @_ZN4pkpy7SStreamD2Ev(ptr noundef nonnull align 8 dereferenceable(20) %5) #3
  ret void

13:                                               ; preds = %11, %2
  %14 = landingpad { ptr, i32 }
          cleanup
  %15 = extractvalue { ptr, i32 } %14, 0
  store ptr %15, ptr %6, align 8
  %16 = extractvalue { ptr, i32 } %14, 1
  store i32 %16, ptr %7, align 4
  call void @_ZN4pkpy7SStreamD2Ev(ptr noundef nonnull align 8 dereferenceable(20) %5) #3
  br label %17

17:                                               ; preds = %13
  %18 = load ptr, ptr %6, align 8
  %19 = load i32, ptr %7, align 4
  %20 = insertvalue { ptr, i32 } poison, ptr %18, 0
  %21 = insertvalue { ptr, i32 } %20, i32 %19, 1
  resume { ptr, i32 } %21
}

; Function Attrs: mustprogress uwtable
define linkonce_odr noundef nonnull align 8 dereferenceable(8) ptr @_ZN4pkpy8_py_castIRNS_5VoidPEEET_PNS_2VMEPNS_8PyObjectE(ptr noundef %0, ptr noundef %1) #4 comdat {
  %3 = alloca ptr, align 8
  %4 = alloca ptr, align 8
  store ptr %0, ptr %3, align 8
  store ptr %1, ptr %4, align 8
  %5 = load ptr, ptr %3, align 8
  %6 = load ptr, ptr %4, align 8
  %7 = call noundef nonnull align 8 dereferenceable(8) ptr @_ZN4pkpy18_py_cast__internalIRNS_5VoidPELb0EEET_PNS_2VMEPNS_8PyObjectE(ptr noundef %5, ptr noundef %6)
  ret ptr %7
}

; Function Attrs: mustprogress uwtable
define internal void @"_ZZN4pkpy12add_module_cEPNS_2VMEENK4$_38clES1_PNS_8PyObjectE"(ptr dead_on_unwind noalias writable sret(%"struct.pkpy::Str") align 8 %0, ptr noundef nonnull align 1 dereferenceable(1) %1, ptr noundef %2, ptr noundef %3) #4 align 2 personality ptr @__gxx_personality_v0 {
  %5 = alloca ptr, align 8
  %6 = alloca ptr, align 8
  %7 = alloca ptr, align 8
  %8 = alloca ptr, align 8
  %9 = alloca ptr, align 8
  %10 = alloca %"struct.pkpy::Str", align 8
  %11 = alloca ptr, align 8
  %12 = alloca i32, align 4
  store ptr %0, ptr %5, align 8
  store ptr %1, ptr %6, align 8
  store ptr %2, ptr %7, align 8
  store ptr %3, ptr %8, align 8
  %13 = load ptr, ptr %7, align 8
  %14 = load ptr, ptr %8, align 8
  %15 = call noundef nonnull align 8 dereferenceable(8) ptr @_ZN4pkpy8_py_castIRNS_5VoidPEEET_PNS_2VMEPNS_8PyObjectE(ptr noundef %13, ptr noundef %14)
  store ptr %15, ptr %9, align 8
  %16 = load ptr, ptr %9, align 8
  call void @_ZNK4pkpy5VoidP3hexEv(ptr dead_on_unwind writable sret(%"struct.pkpy::Str") align 8 %10, ptr noundef nonnull align 8 dereferenceable(8) %16)
  invoke void @_ZN4pkpy2_SIJRA2_KcRA7_S1_RA6_S1_NS_3StrES3_EEES8_DpOT_(ptr dead_on_unwind writable sret(%"struct.pkpy::Str") align 8 %0, ptr noundef nonnull align 1 dereferenceable(2) @.str.93, ptr noundef nonnull align 1 dereferenceable(7) @.str.98, ptr noundef nonnull align 1 dereferenceable(6) @.str.95, ptr noundef nonnull align 8 dereferenceable(32) %10, ptr noundef nonnull align 1 dereferenceable(2) @.str.83)
          to label %17 unwind label %18

17:                                               ; preds = %4
  call void @_ZN4pkpy3StrD1Ev(ptr noundef nonnull align 8 dereferenceable(32) %10) #3
  ret void

18:                                               ; preds = %4
  %19 = landingpad { ptr, i32 }
          cleanup
  %20 = extractvalue { ptr, i32 } %19, 0
  store ptr %20, ptr %11, align 8
  %21 = extractvalue { ptr, i32 } %19, 1
  store i32 %21, ptr %12, align 4
  call void @_ZN4pkpy3StrD1Ev(ptr noundef nonnull align 8 dereferenceable(32) %10) #3
  br label %22

22:                                               ; preds = %18
  %23 = load ptr, ptr %11, align 8
  %24 = load i32, ptr %12, align 4
  %25 = insertvalue { ptr, i32 } poison, ptr %23, 0
  %26 = insertvalue { ptr, i32 } %25, i32 %24, 1
  resume { ptr, i32 } %26
}

; Function Attrs: mustprogress uwtable
define internal void @"_ZZN4pkpy12add_module_cEPNS_2VMEEN4$_388__invokeES1_PNS_8PyObjectE"(ptr dead_on_unwind noalias writable sret(%"struct.pkpy::Str") align 8 %0, ptr noundef %1, ptr noundef %2) #4 align 2 {
  %4 = alloca ptr, align 8
  %5 = alloca ptr, align 8
  %6 = alloca ptr, align 8
  %7 = alloca %class.anon.212, align 1
  store ptr %0, ptr %4, align 8
  store ptr %1, ptr %5, align 8
  store ptr %2, ptr %6, align 8
  %8 = load ptr, ptr %5, align 8
  %9 = load ptr, ptr %6, align 8
  call void @"_ZZN4pkpy12add_module_cEPNS_2VMEENK4$_38clES1_PNS_8PyObjectE"(ptr dead_on_unwind writable sret(%"struct.pkpy::Str") align 8 %0, ptr noundef nonnull align 1 dereferenceable(1) %7, ptr noundef %8, ptr noundef %9)
  ret void
}